target datalayout = "e-m:e-p270:32:32-p271:32:32-p272:64:64-i64:64-i128:128-f80:128-n8:16:32:64-S128"
target triple = "x86_64-pc-linux-gnu"

%"class.icu_77::StringEnumeration" = type <{ %"class.icu_77::UObject", %"class.icu_77::UnicodeString", [32 x i8], ptr, i32, [4 x i8] }>
%"class.icu_77::UObject" = type { ptr }
%"class.icu_77::UnicodeString" = type { %"class.icu_77::Replaceable", %"union.icu_77::UnicodeString::StackBufferOrFields" }
%"class.icu_77::Replaceable" = type { %"class.icu_77::UObject" }
%"union.icu_77::UnicodeString::StackBufferOrFields" = type { %struct.anon.0, [32 x i8] }
%struct.anon.0 = type { i16, i32, i32, ptr }

; Function Attrs: mustprogress nounwind uwtable
define void @_ZN6icu_7717StringEnumerationD2Ev(ptr noundef nonnull align 8 dereferenceable(116) %0) unnamed_addr #4 align 2 personality ptr @__gxx_personality_v0 {
  %2 = alloca ptr, align 8
  store ptr %0, ptr %2, align 8, !tbaa !3
  %3 = load ptr, ptr %2, align 8
  store ptr getelementptr inbounds inrange(-16, 88) ({ [13 x ptr] }, ptr @_ZTVN6icu_7717StringEnumerationE, i32 0, i32 0, i32 2), ptr %3, align 8, !tbaa !8
  %4 = getelementptr inbounds nuw %"class.icu_77::StringEnumeration", ptr %3, i32 0, i32 3
  %5 = load ptr, ptr %4, align 8, !tbaa !10
  %6 = icmp ne ptr %5, null
  br i1 %6, label %7, label %17

7:                                                ; preds = %1
  %8 = getelementptr inbounds nuw %"class.icu_77::StringEnumeration", ptr %3, i32 0, i32 3
  %9 = load ptr, ptr %8, align 8, !tbaa !10
  %10 = getelementptr inbounds nuw %"class.icu_77::StringEnumeration", ptr %3, i32 0, i32 2
  %11 = getelementptr inbounds [32 x i8], ptr %10, i64 0, i64 0
  %12 = icmp ne ptr %9, %11
  br i1 %12, label %13, label %17

13:                                               ; preds = %7
  %14 = getelementptr inbounds nuw %"class.icu_77::StringEnumeration", ptr %3, i32 0, i32 3
  %15 = load ptr, ptr %14, align 8, !tbaa !10
  invoke void @uprv_free_77(ptr noundef %15)
          to label %16 unwind label %19

16:                                               ; preds = %13
  br label %17

17:                                               ; preds = %16, %7, %1
  %18 = getelementptr inbounds nuw %"class.icu_77::StringEnumeration", ptr %3, i32 0, i32 1
  call void @_ZN6icu_7713UnicodeStringD1Ev(ptr noundef nonnull align 8 dereferenceable(64) %18) #12
  call void @_ZN6icu_777UObjectD2Ev(ptr noundef nonnull align 8 dereferenceable(8) %3) #12
  ret void

19:                                               ; preds = %13
  %20 = landingpad { ptr, i32 }
          catch ptr null
  %21 = extractvalue { ptr, i32 } %20, 0
  call void @__clang_call_terminate(ptr %21) #13
  unreachable
}